target datalayout = "e-m:e-p270:32:32-p271:32:32-p272:64:64-i64:64-i128:128-f80:128-n8:16:32:64-S128"
target triple = "x86_64-unknown-linux-gnu"

%struct.hmac_ctx_st = type { ptr, %struct.env_md_ctx_st, %struct.env_md_ctx_st, %struct.env_md_ctx_st }
%struct.env_md_ctx_st = type { ptr, ptr, ptr, ptr }

; Function Attrs: nounwind uwtable
define hidden void @HMAC_CTX_init(ptr noundef %ctx) #0 {
entry:
  %ctx.addr = alloca ptr, align 8
  store ptr %ctx, ptr %ctx.addr, align 8
  %0 = load ptr, ptr %ctx.addr, align 8
  %md = getelementptr inbounds %struct.hmac_ctx_st, ptr %0, i32 0, i32 0
  store ptr null, ptr %md, align 8
  %1 = load ptr, ptr %ctx.addr, align 8
  %i_ctx = getelementptr inbounds %struct.hmac_ctx_st, ptr %1, i32 0, i32 2
  call void @EVP_MD_CTX_init(ptr noundef %i_ctx)
  %2 = load ptr, ptr %ctx.addr, align 8
  %o_ctx = getelementptr inbounds %struct.hmac_ctx_st, ptr %2, i32 0, i32 3
  call void @EVP_MD_CTX_init(ptr noundef %o_ctx)
  %3 = load ptr, ptr %ctx.addr, align 8
  %md_ctx = getelementptr inbounds %struct.hmac_ctx_st, ptr %3, i32 0, i32 1
  call void @EVP_MD_CTX_init(ptr noundef %md_ctx)
  ret void
}