; Function Attrs: nounwind uwtable
define hidden void @HMAC_CTX_init(ptr noundef initializes((0, 8)) %ctx) local_unnamed_addr #0 {
entry:
  store ptr null, ptr %ctx, align 8
  %i_ctx = getelementptr inbounds nuw i8, ptr %ctx, i64 40
  tail call void @EVP_MD_CTX_init(ptr noundef nonnull %i_ctx) #5
  %o_ctx = getelementptr inbounds nuw i8, ptr %ctx, i64 72
  tail call void @EVP_MD_CTX_init(ptr noundef nonnull %o_ctx) #5
  %md_ctx = getelementptr inbounds nuw i8, ptr %ctx, i64 8
  tail call void @EVP_MD_CTX_init(ptr noundef nonnull %md_ctx) #5
  ret void
}